target datalayout = "e-m:e-p270:32:32-p271:32:32-p272:64:64-i64:64-i128:128-f80:128-n8:16:32:64-S128"
target triple = "x86_64-pc-linux-gnu"

@.str.10 = private unnamed_addr constant [5 x i8] c"fini\00", align 1

; Function Attrs: nounwind uwtable
define dso_local void @plugin_unload(ptr noundef %0) #0 {
  %2 = alloca ptr, align 8
  %3 = alloca ptr, align 8
  store ptr %0, ptr %2, align 8
  call void @llvm.lifetime.start.p0(i64 8, ptr %3) #7
  %4 = load ptr, ptr %2, align 8
  %5 = icmp ne ptr %4, null
  br i1 %5, label %6, label %15

6:                                                ; preds = %1
  %7 = load ptr, ptr %2, align 8
  %8 = call ptr @dlsym(ptr noundef %7, ptr noundef @.str.10) #7
  store ptr %8, ptr %3, align 8
  %9 = icmp ne ptr %8, null
  br i1 %9, label %10, label %12

10:                                               ; preds = %6
  %11 = load ptr, ptr %3, align 8
  call void %11()
  br label %12

12:                                               ; preds = %10, %6
  %13 = load ptr, ptr %2, align 8
  %14 = call i32 @dlclose(ptr noundef %13) #7
  br label %15

15:                                               ; preds = %12, %1
  call void @llvm.lifetime.end.p0(i64 8, ptr %3) #7
  ret void
}