; Function Attrs: nounwind uwtable
define dso_local void @plugin_unload(ptr noundef %0) #0 {
  %.not = icmp eq ptr %0, null
  br i1 %.not, label %7, label %2

2:                                                ; preds = %1
  %3 = tail call ptr @dlsym(ptr noundef nonnull %0, ptr noundef nonnull @.str.10) #10
  %.not5 = icmp eq ptr %3, null
  br i1 %.not5, label %5, label %4

4:                                                ; preds = %2
  tail call void %3() #10
  br label %5

5:                                                ; preds = %4, %2
  %6 = tail call i32 @dlclose(ptr noundef nonnull %0) #10
  br label %7

7:                                                ; preds = %5, %1
  ret void
}